0000000000000000 W _ZN2gl21vertex_buffer_element16get_size_of_typeEj
00000000000000c0 T _ZNK2gl12vertex_array10add_bufferERKNS_13vertex_bufferERKNS_13buffer_layoutE
                 U _ZNK2gl13vertex_buffer4bindEv
0000000000000000 W _ZNKSt3__116reverse_iteratorIPN2gl21vertex_buffer_elementEE4baseB7v160006Ev
0000000000000000 W _ZNKSt3__116reverse_iteratorIPN2gl21vertex_buffer_elementEEptB7v160006Ev
0000000000000000 W _ZNKSt3__117__compressed_pairIPN2gl21vertex_buffer_elementENS_9allocatorIS2_EEE5firstB7v160006Ev
0000000000000000 W _ZNKSt3__117__compressed_pairIPN2gl21vertex_buffer_elementENS_9allocatorIS2_EEE6secondB7v160006Ev
0000000000000000 W _ZNKSt3__122__compressed_pair_elemINS_9allocatorIN2gl21vertex_buffer_elementEEELi1ELb1EE5__getB7v160006Ev
0000000000000000 W _ZNKSt3__122__compressed_pair_elemIPN2gl21vertex_buffer_elementELi0ELb0EE5__getB7v160006Ev
0000000000000000 W _ZNKSt3__129_AllocatorDestroyRangeReverseINS_9allocatorIN2gl21vertex_buffer_elementEEEPS3_EclB7v160006Ev
0000000000000000 W _ZNKSt3__16vectorIN2gl21vertex_buffer_elementENS_9allocatorIS2_EEE14__annotate_newB7v160006Em
0000000000000000 W _ZNKSt3__16vectorIN2gl21vertex_buffer_elementENS_9allocatorIS2_EEE17__annotate_deleteB7v160006Ev
0000000000000000 W _ZNKSt3__16vectorIN2gl21vertex_buffer_elementENS_9allocatorIS2_EEE20__throw_length_errorB7v160006Ev
0000000000000000 W _ZNKSt3__16vectorIN2gl21vertex_buffer_elementENS_9allocatorIS2_EEE31__annotate_contiguous_containerB7v160006EPKvS7_S7_S7_
0000000000000000 W _ZNKSt3__16vectorIN2gl21vertex_buffer_elementENS_9allocatorIS2_EEE4dataB7v160006Ev
0000000000000000 W _ZNKSt3__16vectorIN2gl21vertex_buffer_elementENS_9allocatorIS2_EEE4sizeB7v160006Ev
0000000000000000 W _ZNKSt3__16vectorIN2gl21vertex_buffer_elementENS_9allocatorIS2_EEE7__allocB7v160006Ev
0000000000000000 W _ZNKSt3__16vectorIN2gl21vertex_buffer_elementENS_9allocatorIS2_EEE8capacityB7v160006Ev
0000000000000000 W _ZNKSt3__16vectorIN2gl21vertex_buffer_elementENS_9allocatorIS2_EEE8max_sizeEv
0000000000000000 W _ZNKSt3__16vectorIN2gl21vertex_buffer_elementENS_9allocatorIS2_EEE9__end_capB7v160006Ev
0000000000000000 W _ZNKSt3__16vectorIN2gl21vertex_buffer_elementENS_9allocatorIS2_EEEixB7v160006Em
0000000000000000 W _ZNSt3__110destroy_atB7v160006IN2gl21vertex_buffer_elementELi0EEEvPT_
0000000000000000 W _ZNSt3__112__destroy_atB7v160006IN2gl21vertex_buffer_elementELi0EEEvPT_
0000000000000000 W _ZNSt3__112__to_addressB7v160006IN2gl21vertex_buffer_elementEEEPT_S4_
0000000000000000 W _ZNSt3__112__to_addressB7v160006INS_16reverse_iteratorIPN2gl21vertex_buffer_elementEEEvEENS_5decayIDTclsr19__to_address_helperIT_EE6__callclsr3stdE7declvalIRKS7_EEEEE4typeES9_
0000000000000000 W _ZNSt3__112construct_atB7v160006IN2gl21vertex_buffer_elementEJRS2_EPS2_EEPT_S6_DpOT0_
0000000000000000 W _ZNSt3__116allocator_traitsINS_9allocatorIN2gl21vertex_buffer_elementEEEE10deallocateB7v160006ERS4_PS3_m
0000000000000000 W _ZNSt3__116allocator_traitsINS_9allocatorIN2gl21vertex_buffer_elementEEEE37select_on_container_copy_constructionB7v160006IS4_vvEES4_RKS4_
0000000000000000 W _ZNSt3__116allocator_traitsINS_9allocatorIN2gl21vertex_buffer_elementEEEE7destroyB7v160006IS3_vvEEvRS4_PT_
0000000000000000 W _ZNSt3__116allocator_traitsINS_9allocatorIN2gl21vertex_buffer_elementEEEE8max_sizeB7v160006IS4_vvEEmRKS4_
0000000000000000 W _ZNSt3__116allocator_traitsINS_9allocatorIN2gl21vertex_buffer_elementEEEE9constructB7v160006IS3_JRS3_EvvEEvRS4_PT_DpOT0_
0000000000000000 W _ZNSt3__116reverse_iteratorIPN2gl21vertex_buffer_elementEEC2B7v160006ES3_
0000000000000000 W _ZNSt3__116reverse_iteratorIPN2gl21vertex_buffer_elementEEppB7v160006Ev
0000000000000000 W _ZNSt3__117__compressed_pairIPN2gl21vertex_buffer_elementENS_9allocatorIS2_EEE5firstB7v160006Ev
0000000000000000 W _ZNSt3__117__compressed_pairIPN2gl21vertex_buffer_elementENS_9allocatorIS2_EEE6secondB7v160006Ev
0000000000000000 W _ZNSt3__117__compressed_pairIPN2gl21vertex_buffer_elementENS_9allocatorIS2_EEEC2B7v160006IDnS5_EEOT_OT0_
0000000000000000 W _ZNSt3__118__debug_db_erase_cB7v160006INS_6vectorIN2gl21vertex_buffer_elementENS_9allocatorIS3_EEEEEEvPT_
0000000000000000 W _ZNSt3__119__allocate_at_leastB7v160006INS_9allocatorIN2gl21vertex_buffer_elementEEEEENS_19__allocation_resultINS_16allocator_traitsIT_E7pointerEEERS7_m
0000000000000000 W _ZNSt3__119__allocator_destroyB7v160006INS_9allocatorIN2gl21vertex_buffer_elementEEENS_16reverse_iteratorIPS3_EES7_EEvRT_T0_T1_
0000000000000000 W _ZNSt3__119__debug_db_insert_cB7v160006INS_6vectorIN2gl21vertex_buffer_elementENS_9allocatorIS3_EEEEEEvPT_
0000000000000000 W _ZNSt3__119__to_address_helperINS_16reverse_iteratorIPN2gl21vertex_buffer_elementEEEvE6__callB7v160006ERKS5_
0000000000000000 W _ZNSt3__122__compressed_pair_elemINS_9allocatorIN2gl21vertex_buffer_elementEEELi1ELb1EE5__getB7v160006Ev
0000000000000000 W _ZNSt3__122__compressed_pair_elemINS_9allocatorIN2gl21vertex_buffer_elementEEELi1ELb1EEC2B7v160006IS4_vEEOT_
0000000000000000 W _ZNSt3__122__compressed_pair_elemIPN2gl21vertex_buffer_elementELi0ELb0EE5__getB7v160006Ev
0000000000000000 W _ZNSt3__122__compressed_pair_elemIPN2gl21vertex_buffer_elementELi0ELb0EEC2B7v160006IDnvEEOT_
0000000000000000 W _ZNSt3__122__make_exception_guardB7v160006INS_29_AllocatorDestroyRangeReverseINS_9allocatorIN2gl21vertex_buffer_elementEEEPS4_EEEENS_28__exception_guard_exceptionsIT_EES9_
0000000000000000 W _ZNSt3__122__make_exception_guardB7v160006INS_6vectorIN2gl21vertex_buffer_elementENS_9allocatorIS3_EEE16__destroy_vectorEEENS_28__exception_guard_exceptionsIT_EES9_
0000000000000000 W _ZNSt3__128__exception_guard_exceptionsINS_29_AllocatorDestroyRangeReverseINS_9allocatorIN2gl21vertex_buffer_elementEEEPS4_EEE10__completeB7v160006Ev
0000000000000000 W _ZNSt3__128__exception_guard_exceptionsINS_29_AllocatorDestroyRangeReverseINS_9allocatorIN2gl21vertex_buffer_elementEEEPS4_EEEC2B7v160006ES7_
0000000000000000 W _ZNSt3__128__exception_guard_exceptionsINS_29_AllocatorDestroyRangeReverseINS_9allocatorIN2gl21vertex_buffer_elementEEEPS4_EEED2B7v160006Ev
0000000000000000 W _ZNSt3__128__exception_guard_exceptionsINS_6vectorIN2gl21vertex_buffer_elementENS_9allocatorIS3_EEE16__destroy_vectorEE10__completeB7v160006Ev
0000000000000000 W _ZNSt3__128__exception_guard_exceptionsINS_6vectorIN2gl21vertex_buffer_elementENS_9allocatorIS3_EEE16__destroy_vectorEEC2B7v160006ES7_
0000000000000000 W _ZNSt3__128__exception_guard_exceptionsINS_6vectorIN2gl21vertex_buffer_elementENS_9allocatorIS3_EEE16__destroy_vectorEED2B7v160006Ev
0000000000000000 W _ZNSt3__129_AllocatorDestroyRangeReverseINS_9allocatorIN2gl21vertex_buffer_elementEEEPS3_EC2B7v160006ERS4_RS5_S8_
0000000000000000 W _ZNSt3__130__uninitialized_allocator_copyB7v160006INS_9allocatorIN2gl21vertex_buffer_elementEEEPS3_S5_S5_EET2_RT_T0_T1_S6_
0000000000000000 W _ZNSt3__14prevB7v160006IPN2gl21vertex_buffer_elementEEENS_9enable_ifIXsr25__is_cpp17_input_iteratorIT_EE5valueES5_E4typeES5_NS_15iterator_traitsIS5_E15difference_typeE
0000000000000000 W _ZNSt3__16vectorIN2gl21vertex_buffer_elementENS_9allocatorIS2_EEE11__vallocateB7v160006Em
0000000000000000 W _ZNSt3__16vectorIN2gl21vertex_buffer_elementENS_9allocatorIS2_EEE16__destroy_vectorC2ERS5_
0000000000000000 W _ZNSt3__16vectorIN2gl21vertex_buffer_elementENS_9allocatorIS2_EEE16__destroy_vectorclB7v160006Ev
0000000000000000 W _ZNSt3__16vectorIN2gl21vertex_buffer_elementENS_9allocatorIS2_EEE18__construct_at_endIPS2_Li0EEEvT_S8_m
0000000000000000 W _ZNSt3__16vectorIN2gl21vertex_buffer_elementENS_9allocatorIS2_EEE21_ConstructTransactionC2B7v160006ERS5_m
0000000000000000 W _ZNSt3__16vectorIN2gl21vertex_buffer_elementENS_9allocatorIS2_EEE21_ConstructTransactionD2B7v160006Ev
0000000000000000 W _ZNSt3__16vectorIN2gl21vertex_buffer_elementENS_9allocatorIS2_EEE22__base_destruct_at_endB7v160006EPS2_
0000000000000000 W _ZNSt3__16vectorIN2gl21vertex_buffer_elementENS_9allocatorIS2_EEE7__allocB7v160006Ev
0000000000000000 W _ZNSt3__16vectorIN2gl21vertex_buffer_elementENS_9allocatorIS2_EEE7__clearB7v160006Ev
0000000000000000 W _ZNSt3__16vectorIN2gl21vertex_buffer_elementENS_9allocatorIS2_EEE9__end_capB7v160006Ev
0000000000000000 W _ZNSt3__16vectorIN2gl21vertex_buffer_elementENS_9allocatorIS2_EEEC2ERKS5_
0000000000000000 W _ZNSt3__16vectorIN2gl21vertex_buffer_elementENS_9allocatorIS2_EEED2B7v160006Ev
0000000000000000 W _ZNSt3__17advanceB7v160006IPN2gl21vertex_buffer_elementEllvEEvRT_T0_
0000000000000000 W _ZNSt3__19__advanceB7v160006IPN2gl21vertex_buffer_elementEEEvRT_NS_15iterator_traitsIS4_E15difference_typeENS_26random_access_iterator_tagE
0000000000000000 W _ZNSt3__19allocatorIN2gl21vertex_buffer_elementEE10deallocateB7v160006EPS2_m
0000000000000000 W _ZNSt3__19allocatorIN2gl21vertex_buffer_elementEE8allocateB7v160006Em
0000000000000000 W _ZNSt3__1neB7v160006IPN2gl21vertex_buffer_elementES3_EEbRKNS_16reverse_iteratorIT_EERKNS4_IT0_EE
vertex_buffer.cpp.o:
0000000000000070 T _ZN2gl13vertex_buffer6unbindEv
0000000000000000 T _ZN2gl13vertex_bufferD1Ev
0000000000000000 T _ZN2gl13vertex_bufferD2Ev
0000000000000040 T _ZNK2gl13vertex_buffer4bindEv
index_buffer.cpp.o:
0000000000000070 T _ZN2gl12index_buffer6unbindEv
0000000000000000 T _ZN2gl12index_bufferD1Ev
0000000000000000 T _ZN2gl12index_bufferD2Ev
0000000000000040 T _ZNK2gl12index_buffer4bindEv
